; Function Attrs: mustprogress uwtable
define void @_ZNK21PathSelectionDelegate13setEditorDataEP7QWidgetRK11QModelIndex(ptr noundef nonnull align 8 dereferenceable(16) %0, ptr noundef %1, ptr noundef nonnull align 8 dereferenceable(24) %2) unnamed_addr #0 align 2 personality ptr @__gxx_personality_v0 {
  %4 = alloca %class.QString, align 8
  %5 = alloca %class.QVariant, align 8
  %6 = load i32, ptr %2, align 8
  %7 = icmp sgt i32 %6, -1
  %8 = getelementptr inbounds i8, ptr %2, i64 4
  %9 = load i32, ptr %8, align 4
  %10 = icmp sgt i32 %9, -1
  %or.cond.i = select i1 %7, i1 %10, i1 false
  %11 = getelementptr inbounds i8, ptr %2, i64 16
  %12 = load ptr, ptr %11, align 8
  %13 = icmp ne ptr %12, null
  %or.cond = select i1 %or.cond.i, i1 %13, i1 false
  br i1 %or.cond, label %14, label %_ZNK11QModelIndex7isValidEv.exit.thread

14:                                               ; preds = %3
  %15 = tail call noundef ptr @_ZNK11QMetaObject4castEPK7QObject(ptr noundef nonnull align 8 dereferenceable(56) @_ZN17PathSelectionEdit16staticMetaObjectE, ptr noundef %1)
  %.not = icmp eq ptr %15, null
  br i1 %.not, label %_ZNK11QModelIndex7isValidEv.exit.thread, label %16

16:                                               ; preds = %14
  %17 = tail call noundef ptr @_ZNK11QMetaObject4castEPK7QObject(ptr noundef nonnull align 8 dereferenceable(56) @_ZN17PathSelectionEdit16staticMetaObjectE, ptr noundef %1)
  tail call void @llvm.experimental.noalias.scope.decl(metadata !7)
  %18 = load ptr, ptr %11, align 8, !noalias !7
  %.not.i = icmp eq ptr %18, null
  br i1 %.not.i, label %23, label %19

19:                                               ; preds = %16
  %20 = load ptr, ptr %18, align 8, !noalias !7
  %21 = getelementptr inbounds i8, ptr %20, i64 144
  %22 = load ptr, ptr %21, align 8, !noalias !7
  call void %22(ptr dead_on_unwind nonnull writable sret(%class.QVariant) align 8 %5, ptr noundef nonnull align 8 dereferenceable(16) %18, ptr noundef nonnull align 8 dereferenceable(24) %2, i32 noundef 0)
  br label %_ZNK11QModelIndex4dataEi.exit

23:                                               ; preds = %16
  call void @llvm.memset.p0.i64(ptr noundef nonnull align 8 dereferenceable(24) %5, i8 0, i64 24, i1 false), !alias.scope !7
  %24 = getelementptr inbounds i8, ptr %5, i64 24
  store i64 2, ptr %24, align 8, !alias.scope !7
  br label %_ZNK11QModelIndex4dataEi.exit

_ZNK11QModelIndex4dataEi.exit:                    ; preds = %19, %23
  invoke void @_ZNK8QVariant8toStringEv(ptr dead_on_unwind nonnull writable sret(%class.QString) align 8 %4, ptr noundef nonnull align 8 dereferenceable(32) %5)
          to label %25 unwind label %31

25:                                               ; preds = %_ZNK11QModelIndex4dataEi.exit
  invoke void @_ZN17PathSelectionEdit7setPathE7QString(ptr noundef nonnull align 8 dereferenceable(112) %17, ptr noundef nonnull %4)
          to label %26 unwind label %33

26:                                               ; preds = %25
  %27 = load ptr, ptr %4, align 8
  %.not.i.i.i = icmp eq ptr %27, null
  br i1 %.not.i.i.i, label %_ZN7QStringD2Ev.exit, label %_ZN17QArrayDataPointerIDsE5derefEv.exit.i.i

_ZN17QArrayDataPointerIDsE5derefEv.exit.i.i:      ; preds = %26
  %28 = atomicrmw sub ptr %27, i32 1 seq_cst, align 4
  %.not.i.i = icmp eq i32 %28, 1
  br i1 %.not.i.i, label %29, label %_ZN7QStringD2Ev.exit

29:                                               ; preds = %_ZN17QArrayDataPointerIDsE5derefEv.exit.i.i
  %30 = load ptr, ptr %4, align 8
  call void @_ZN10QArrayData10deallocateEPS_xx(ptr noundef %30, i64 noundef 2, i64 noundef 8) #9
  br label %_ZN7QStringD2Ev.exit

_ZN7QStringD2Ev.exit:                             ; preds = %26, %_ZN17QArrayDataPointerIDsE5derefEv.exit.i.i, %29
  call void @_ZN8QVariantD1Ev(ptr noundef nonnull align 8 dereferenceable(32) %5) #9
  br label %39

31:                                               ; preds = %_ZNK11QModelIndex4dataEi.exit
  %32 = landingpad { ptr, i32 }
          cleanup
  br label %_ZN7QStringD2Ev.exit14

33:                                               ; preds = %25
  %34 = landingpad { ptr, i32 }
          cleanup
  %35 = load ptr, ptr %4, align 8
  %.not.i.i.i11 = icmp eq ptr %35, null
  br i1 %.not.i.i.i11, label %_ZN7QStringD2Ev.exit14, label %_ZN17QArrayDataPointerIDsE5derefEv.exit.i.i12

_ZN17QArrayDataPointerIDsE5derefEv.exit.i.i12:    ; preds = %33
  %36 = atomicrmw sub ptr %35, i32 1 seq_cst, align 4
  %.not.i.i13 = icmp eq i32 %36, 1
  br i1 %.not.i.i13, label %37, label %_ZN7QStringD2Ev.exit14

37:                                               ; preds = %_ZN17QArrayDataPointerIDsE5derefEv.exit.i.i12
  %38 = load ptr, ptr %4, align 8
  call void @_ZN10QArrayData10deallocateEPS_xx(ptr noundef %38, i64 noundef 2, i64 noundef 8) #9
  br label %_ZN7QStringD2Ev.exit14

_ZN7QStringD2Ev.exit14:                           ; preds = %37, %_ZN17QArrayDataPointerIDsE5derefEv.exit.i.i12, %33, %31
  %.pn = phi { ptr, i32 } [ %32, %31 ], [ %34, %33 ], [ %34, %_ZN17QArrayDataPointerIDsE5derefEv.exit.i.i12 ], [ %34, %37 ]
  call void @_ZN8QVariantD1Ev(ptr noundef nonnull align 8 dereferenceable(32) %5) #9
  resume { ptr, i32 } %.pn

_ZNK11QModelIndex7isValidEv.exit.thread:          ; preds = %3, %14
  tail call void @_ZNK19QStyledItemDelegate13setEditorDataEP7QWidgetRK11QModelIndex(ptr noundef nonnull align 8 dereferenceable(16) %0, ptr noundef %1, ptr noundef nonnull align 8 dereferenceable(24) %2)
  br label %39

39:                                               ; preds = %_ZNK11QModelIndex7isValidEv.exit.thread, %_ZN7QStringD2Ev.exit
  ret void
}